; ModuleID = 'source-C-CXX/33/3244.c'
source_filename = "source-C-CXX/33/3244.c"
target datalayout = "e-m:e-p270:32:32-p271:32:32-p272:64:64-i64:64-f80:128-n8:16:32:64-S128"
target triple = "x86_64-pc-linux-gnu"

@.str = private unnamed_addr constant [3 x i8] c"%d\00", align 1
@.str.1 = private unnamed_addr constant [4 x i8] c"End\00", align 1
@.str.2 = private unnamed_addr constant [9 x i8] c"%d/2=%d\0A\00", align 1
@.str.3 = private unnamed_addr constant [11 x i8] c"%d*3+1=%d\0A\00", align 1

; Function Attrs: nofree nounwind sspstrong uwtable
define dso_local i32 @main() local_unnamed_addr #0 {
  %1 = alloca i32, align 4
  %2 = bitcast i32* %1 to i8*
  call void @llvm.lifetime.start.p0i8(i64 4, i8* nonnull %2) #3
  %3 = call i32 (i8*, ...) @__isoc99_scanf(i8* getelementptr inbounds ([3 x i8], [3 x i8]* @.str, i64 0, i64 0), i32* nonnull %1)
  %4 = load i32, i32* %1, align 4, !tbaa !5
  %5 = icmp eq i32 %4, 1
  br i1 %5, label %40, label %6

6:                                                ; preds = %0
  %7 = and i32 %4, 1
  %8 = icmp eq i32 %7, 0
  br i1 %8, label %9, label %11

9:                                                ; preds = %6
  %10 = sdiv i32 %4, 2
  br label %14

11:                                               ; preds = %6
  %12 = mul nsw i32 %4, 3
  %13 = add nsw i32 %12, 1
  br label %14

14:                                               ; preds = %11, %9
  %15 = phi i32 [ %10, %9 ], [ %13, %11 ]
  %16 = icmp eq i32 %15, 1
  br i1 %16, label %34, label %17

17:                                               ; preds = %14, %31
  %18 = phi i32 [ %19, %31 ], [ %4, %14 ]
  %19 = phi i32 [ %32, %31 ], [ %15, %14 ]
  %20 = and i32 %18, 1
  %21 = icmp eq i32 %20, 0
  %22 = select i1 %21, i8* getelementptr inbounds ([9 x i8], [9 x i8]* @.str.2, i64 0, i64 0), i8* getelementptr inbounds ([11 x i8], [11 x i8]* @.str.3, i64 0, i64 0)
  %23 = call i32 (i8*, ...) @printf(i8* nonnull dereferenceable(1) %22, i32 %18, i32 %19)
  store i32 %19, i32* %1, align 4, !tbaa !5
  %24 = and i32 %19, 1
  %25 = icmp eq i32 %24, 0
  br i1 %25, label %26, label %28

26:                                               ; preds = %17
  %27 = sdiv i32 %19, 2
  br label %31

28:                                               ; preds = %17
  %29 = mul nsw i32 %19, 3
  %30 = add nsw i32 %29, 1
  br label %31

31:                                               ; preds = %28, %26
  %32 = phi i32 [ %27, %26 ], [ %30, %28 ]
  %33 = icmp eq i32 %32, 1
  br i1 %33, label %34, label %17, !llvm.loop !9

34:                                               ; preds = %31, %14
  %35 = phi i32 [ %4, %14 ], [ %19, %31 ]
  %36 = and i32 %35, 1
  %37 = icmp eq i32 %36, 0
  %38 = select i1 %37, i8* getelementptr inbounds ([9 x i8], [9 x i8]* @.str.2, i64 0, i64 0), i8* getelementptr inbounds ([11 x i8], [11 x i8]* @.str.3, i64 0, i64 0)
  %39 = call i32 (i8*, ...) @printf(i8* nonnull dereferenceable(1) %38, i32 %35, i32 1)
  br label %40

40:                                               ; preds = %0, %34
  %41 = call i32 (i8*, ...) @printf(i8* nonnull dereferenceable(1) getelementptr inbounds ([4 x i8], [4 x i8]* @.str.1, i64 0, i64 0))
  call void @llvm.lifetime.end.p0i8(i64 4, i8* nonnull %2) #3
  ret i32 0
}

; Function Attrs: argmemonly mustprogress nofree nosync nounwind willreturn
declare void @llvm.lifetime.start.p0i8(i64 immarg, i8* nocapture) #1

; Function Attrs: nofree nounwind
declare noundef i32 @__isoc99_scanf(i8* nocapture noundef readonly, ...) local_unnamed_addr #2

; Function Attrs: nofree nounwind
declare noundef i32 @printf(i8* nocapture noundef readonly, ...) local_unnamed_addr #2

; Function Attrs: argmemonly mustprogress nofree nosync nounwind willreturn
declare void @llvm.lifetime.end.p0i8(i64 immarg, i8* nocapture) #1


!llvm.module.flags = !{!0, !1, !2, !3}
!llvm.ident = !{!4}

!0 = !{i32 1, !"wchar_size", i32 4}
!1 = !{i32 7, !"PIC Level", i32 2}
!2 = !{i32 7, !"PIE Level", i32 2}
!3 = !{i32 7, !"uwtable", i32 1}
!4 = !{!"clang version 13.0.0"}
!5 = !{!6, !6, i64 0}
!6 = !{!"int", !7, i64 0}
!7 = !{!"omnipotent char", !8, i64 0}
!8 = !{!"Simple C/C++ TBAA"}
!9 = distinct !{!9, !10}
!10 = !{!"llvm.loop.mustprogress"}
